; Function Attrs: mustprogress nofree norecurse nosync nounwind willreturn memory(argmem: readwrite) uwtable
define noundef i64 @_Z15fast_rv64i_sltiP11processor_t6insn_tm(ptr nocapture noundef %0, i64 %1, i64 noundef %2) local_unnamed_addr #3 {
  %4 = lshr i64 %1, 7
  %5 = and i64 %4, 31
  %.not.i = icmp eq i64 %5, 0
  br i1 %.not.i, label %_ZN9regfile_tImLm32ELb1EE5writeEmm.exit, label %6

6:                                                ; preds = %3
  %7 = getelementptr inbounds i8, ptr %0, i64 120
  %8 = lshr i64 %1, 15
  %9 = and i64 %8, 31
  %10 = getelementptr inbounds [32 x i64], ptr %7, i64 0, i64 %9
  %11 = load i64, ptr %10, align 8
  %12 = shl i64 %1, 32
  %13 = ashr i64 %12, 52
  %14 = icmp slt i64 %11, %13
  %15 = zext i1 %14 to i64
  %16 = getelementptr inbounds [32 x i64], ptr %7, i64 0, i64 %5
  store i64 %15, ptr %16, align 8
  br label %_ZN9regfile_tImLm32ELb1EE5writeEmm.exit

_ZN9regfile_tImLm32ELb1EE5writeEmm.exit:          ; preds = %3, %6
  %17 = add i64 %2, 4
  ret i64 %17
}